	.file	"main.c"
	.text
	.globl	foo                             # -- Begin function foo
	.p2align	4
	.type	foo,@function
foo:                                    # @foo
	.cfi_startproc
# %bb.0:
	pushq	%rbp
	.cfi_def_cfa_offset 16
	.cfi_offset %rbp, -16
	movq	%rsp, %rbp
	.cfi_def_cfa_register %rbp
	movl	%edi, -4(%rbp)
	popq	%rbp
	.cfi_def_cfa %rsp, 8
	retq
.Lfunc_end0:
	.size	foo, .Lfunc_end0-foo
	.cfi_endproc
                                        # -- End function
	.globl	bar                             # -- Begin function bar
	.p2align	4
	.type	bar,@function
bar:                                    # @bar
	.cfi_startproc
# %bb.0:
	pushq	%rbp
	.cfi_def_cfa_offset 16
	.cfi_offset %rbp, -16
	movq	%rsp, %rbp
	.cfi_def_cfa_register %rbp
	movq	%rdi, -8(%rbp)
	popq	%rbp
	.cfi_def_cfa %rsp, 8
	retq
.Lfunc_end1:
	.size	bar, .Lfunc_end1-bar
	.cfi_endproc
                                        # -- End function
	.globl	main                            # -- Begin function main
	.p2align	4
	.type	main,@function
main:                                   # @main
	.cfi_startproc
# %bb.0:
	pushq	%rbp
	.cfi_def_cfa_offset 16
	.cfi_offset %rbp, -16
	movq	%rsp, %rbp
	.cfi_def_cfa_register %rbp
	movl	$69, %edi
	callq	foo
	leaq	.L.str(%rip), %rdi
	callq	bar
	xorl	%eax, %eax
	popq	%rbp
	.cfi_def_cfa %rsp, 8
	retq
.Lfunc_end2:
	.size	main, .Lfunc_end2-main
	.cfi_endproc
                                        # -- End function
	.type	.L.str,@object                  # @.str
	.section	.rodata.str1.1,"aMS",@progbits,1
.L.str:
	.asciz	"Hello, World"
	.size	.L.str, 13

	.ident	"Debian clang version 20.1.8 (++20250708063551+0c9f909b7976-1~exp1~20250708183702.136)"
	.section	".note.GNU-stack","",@progbits
	.addrsig
	.addrsig_sym foo
	.addrsig_sym bar
